target datalayout = "e-m:e-p270:32:32-p271:32:32-p272:64:64-i64:64-i128:128-f80:128-n8:16:32:64-S128"
target triple = "x86_64-pc-linux-gnu"

%struct.Vec_Int_t_ = type { i32, i32, ptr }
%struct.Abc_Ntk_t_ = type { i32, i32, ptr, ptr, ptr, ptr, ptr, ptr, ptr, ptr, ptr, ptr, ptr, [11 x i32], i32, i32, i32, i32, ptr, i32, ptr, ptr, i32, i32, i32, double, i32, %struct.Vec_Int_t_, ptr, ptr, ptr, ptr, ptr, float, i32, ptr, ptr, ptr, ptr, ptr, ptr, ptr, ptr, ptr, ptr, ptr, ptr, ptr, ptr, ptr, ptr, ptr, ptr, ptr, ptr, ptr }

@.str.109 = private unnamed_addr constant [51 x i8] c"Cleanup removed %d primary inputs without fanout.\0A\00", align 1
@.str.110 = private unnamed_addr constant [55 x i8] c"Cleanup removed %d primary outputs driven by const-0.\0A\00", align 1

; Function Attrs: nounwind uwtable
define ptr @Abc_NtkDarCleanupAig(ptr noundef %0, i32 noundef %1, i32 noundef %2, i32 noundef %3) #0 {
  %5 = alloca ptr, align 8
  %6 = alloca ptr, align 8
  %7 = alloca i32, align 4
  %8 = alloca i32, align 4
  %9 = alloca i32, align 4
  %10 = alloca ptr, align 8
  %11 = alloca ptr, align 8
  %12 = alloca i32, align 4
  %13 = alloca i32, align 4
  store ptr %0, ptr %6, align 8
  store i32 %1, ptr %7, align 4
  store i32 %2, ptr %8, align 4
  store i32 %3, ptr %9, align 4
  %14 = load ptr, ptr %6, align 8
  %15 = call ptr @Abc_NtkToDar(ptr noundef %14, i32 noundef 0, i32 noundef 1)
  store ptr %15, ptr %11, align 8
  %16 = load ptr, ptr %11, align 8
  %17 = icmp eq ptr %16, null
  br i1 %17, label %18, label %19

18:                                               ; preds = %4
  store ptr null, ptr %5, align 8
  br label %58

19:                                               ; preds = %4
  %20 = load i32, ptr %7, align 4
  %21 = icmp ne i32 %20, 0
  br i1 %21, label %22, label %30

22:                                               ; preds = %19
  %23 = load ptr, ptr %11, align 8
  %24 = call i32 @Aig_ManCiCleanup(ptr noundef %23)
  store i32 %24, ptr %12, align 4
  %25 = load i32, ptr %9, align 4
  %26 = icmp ne i32 %25, 0
  br i1 %26, label %27, label %29

27:                                               ; preds = %22
  %28 = load i32, ptr %12, align 4
  call void (i32, ptr, ...) @Abc_Print(i32 noundef 1, ptr noundef @.str.109, i32 noundef %28)
  br label %29

29:                                               ; preds = %27, %22
  br label %30

30:                                               ; preds = %29, %19
  %31 = load i32, ptr %8, align 4
  %32 = icmp ne i32 %31, 0
  br i1 %32, label %33, label %41

33:                                               ; preds = %30
  %34 = load ptr, ptr %11, align 8
  %35 = call i32 @Aig_ManCoCleanup(ptr noundef %34)
  store i32 %35, ptr %13, align 4
  %36 = load i32, ptr %9, align 4
  %37 = icmp ne i32 %36, 0
  br i1 %37, label %38, label %40

38:                                               ; preds = %33
  %39 = load i32, ptr %13, align 4
  call void (i32, ptr, ...) @Abc_Print(i32 noundef 1, ptr noundef @.str.110, i32 noundef %39)
  br label %40

40:                                               ; preds = %38, %33
  br label %41

41:                                               ; preds = %40, %30
  %42 = load ptr, ptr %11, align 8
  %43 = call ptr @Abc_NtkFromAigPhase(ptr noundef %42)
  store ptr %43, ptr %10, align 8
  %44 = load ptr, ptr %6, align 8
  %45 = getelementptr inbounds %struct.Abc_Ntk_t_, ptr %44, i32 0, i32 2
  %46 = load ptr, ptr %45, align 8
  %47 = call ptr @Extra_UtilStrsav(ptr noundef %46)
  %48 = load ptr, ptr %10, align 8
  %49 = getelementptr inbounds %struct.Abc_Ntk_t_, ptr %48, i32 0, i32 2
  store ptr %47, ptr %49, align 8
  %50 = load ptr, ptr %6, align 8
  %51 = getelementptr inbounds %struct.Abc_Ntk_t_, ptr %50, i32 0, i32 3
  %52 = load ptr, ptr %51, align 8
  %53 = call ptr @Extra_UtilStrsav(ptr noundef %52)
  %54 = load ptr, ptr %10, align 8
  %55 = getelementptr inbounds %struct.Abc_Ntk_t_, ptr %54, i32 0, i32 3
  store ptr %53, ptr %55, align 8
  %56 = load ptr, ptr %11, align 8
  call void @Aig_ManStop(ptr noundef %56)
  %57 = load ptr, ptr %10, align 8
  store ptr %57, ptr %5, align 8
  br label %58

58:                                               ; preds = %41, %18
  %59 = load ptr, ptr %5, align 8
  ret ptr %59
}