; Function Attrs: nounwind uwtable
define noundef ptr @Abc_NtkDarCleanupAig(ptr noundef %0, i32 noundef %1, i32 noundef %2, i32 noundef %3) local_unnamed_addr #1 {
  %5 = tail call ptr @Abc_NtkToDar(ptr noundef %0, i32 noundef 0, i32 noundef 1)
  %6 = icmp eq ptr %5, null
  br i1 %6, label %26, label %7

7:                                                ; preds = %4
  %.not = icmp eq i32 %1, 0
  br i1 %.not, label %11, label %8

8:                                                ; preds = %7
  %9 = tail call i32 @Aig_ManCiCleanup(ptr noundef nonnull %5) #19
  %.not18 = icmp eq i32 %3, 0
  br i1 %.not18, label %.thread, label %10

10:                                               ; preds = %8
  tail call void (i32, ptr, ...) @Abc_Print(i32 poison, ptr noundef nonnull @.str.109, i32 noundef %9)
  br label %11

11:                                               ; preds = %10, %7
  %.not19 = icmp eq i32 %2, 0
  br i1 %.not19, label %16, label %13

.thread:                                          ; preds = %8
  %.not1921 = icmp eq i32 %2, 0
  br i1 %.not1921, label %16, label %.thread22

.thread22:                                        ; preds = %.thread
  %12 = tail call i32 @Aig_ManCoCleanup(ptr noundef nonnull %5) #19
  br label %16

13:                                               ; preds = %11
  %14 = tail call i32 @Aig_ManCoCleanup(ptr noundef nonnull %5) #19
  %.not20 = icmp eq i32 %3, 0
  br i1 %.not20, label %16, label %15

15:                                               ; preds = %13
  tail call void (i32, ptr, ...) @Abc_Print(i32 poison, ptr noundef nonnull @.str.110, i32 noundef %14)
  br label %16

16:                                               ; preds = %.thread22, %.thread, %13, %15, %11
  %17 = tail call ptr @Abc_NtkFromAigPhase(ptr noundef nonnull %5)
  %18 = getelementptr inbounds nuw i8, ptr %0, i64 8
  %19 = load ptr, ptr %18, align 8
  %20 = tail call ptr @Extra_UtilStrsav(ptr noundef %19) #19
  %21 = getelementptr inbounds nuw i8, ptr %17, i64 8
  store ptr %20, ptr %21, align 8
  %22 = getelementptr inbounds nuw i8, ptr %0, i64 16
  %23 = load ptr, ptr %22, align 8
  %24 = tail call ptr @Extra_UtilStrsav(ptr noundef %23) #19
  %25 = getelementptr inbounds nuw i8, ptr %17, i64 16
  store ptr %24, ptr %25, align 8
  tail call void @Aig_ManStop(ptr noundef nonnull %5) #19
  br label %26

26:                                               ; preds = %4, %16
  %.0 = phi ptr [ %17, %16 ], [ null, %4 ]
  ret ptr %.0
}